Certificate:
    Data:
        Version: 3 (0x2)
        Serial Number: 1 (0x1)
        Signature Algorithm: sha256WithRSAEncryption
        Issuer: C=IN, ST=New Delhi, L=Delhi, O=cryoelite, PRIVATE, OU=Development, CN=localCA/emailAddress=cryonim@gmail.com
        Validity
            Not Before: Nov 27 12:23:24 2021 GMT
            Not After : Aug 23 12:23:24 2024 GMT
        Subject: C=IN, ST=New Delhi, L=Delhi, O=cryoelite, PRIVATE, CN=crbTest
        Subject Public Key Info:
            Public Key Algorithm: rsaEncryption
                Public-Key: (2048 bit)
                Modulus:
                    00:a9:43:35:bd:f8:20:15:c7:14:02:3a:41:b8:df:
                    b1:33:78:2c:63:6b:ce:f2:9d:e9:04:b1:99:0d:7d:
                    11:a1:27:39:2c:5a:aa:6a:4c:de:f5:cb:ba:e3:8b:
                    35:42:cf:dd:da:73:22:35:79:1c:dd:f0:60:a5:c4:
                    58:3c:fb:99:e0:99:a7:ad:84:f9:cd:37:84:6a:99:
                    f4:6d:40:69:66:09:27:7b:6a:ad:2c:15:32:0d:43:
                    67:27:12:1e:c4:91:d0:99:a5:de:1b:9a:5f:69:79:
                    b3:c0:ca:0a:a1:7c:73:2d:15:61:41:df:56:24:5a:
                    bf:9d:8d:ec:9e:b6:bd:df:8c:74:bf:88:1b:be:8b:
                    0a:1b:90:74:06:29:80:f2:c4:96:61:87:0c:8c:5b:
                    2b:3d:4d:0b:21:56:86:8b:26:6a:50:a4:42:17:b5:
                    6f:c8:44:fb:32:b7:bd:46:5f:db:68:c5:c4:99:0d:
                    66:90:d0:49:1d:a9:c9:07:1d:3c:68:70:ad:3b:2c:
                    01:22:58:60:04:3a:47:04:17:c3:96:21:47:45:d5:
                    81:33:42:77:4b:d0:cf:27:5f:ac:04:67:6b:73:e4:
                    21:da:a9:75:c5:5c:1a:06:18:62:7c:0b:27:ca:4b:
                    1f:e5:bf:ad:1b:bf:37:35:92:47:6b:8f:e7:64:97:
                    4d:4d
                Exponent: 65537 (0x10001)
        X509v3 extensions:
            X509v3 Subject Key Identifier: 
                2B:19:38:7C:4F:E4:C5:46:5E:0B:3E:07:81:58:D1:21:F6:A0:21:7D
            X509v3 Authority Key Identifier: 
                89:6B:96:BE:1C:F1:F9:84:FB:86:CC:A9:74:E0:32:9E:AF:85:47:77
            X509v3 Basic Constraints: 
                CA:FALSE
            X509v3 Key Usage: 
                Digital Signature, Key Encipherment
            X509v3 Subject Alternative Name: 
                DNS:example.com, DNS:www.example.com, DNS:mail.example.com, DNS:ftp.example.com, IP Address:127.0.0.1, IP Address:0:0:0:0:0:0:0:1
            Netscape Comment: 
                OpenSSL Generated Certificate
    Signature Algorithm: sha256WithRSAEncryption
    Signature Value:
        14:89:18:50:26:a3:cb:85:eb:31:0e:52:e3:cb:f9:9e:16:b2:
        d8:55:28:15:80:45:50:ea:22:70:a5:4d:47:f1:1a:22:e1:0a:
        fc:6c:d7:58:5c:1a:51:d0:b9:1c:27:d0:ac:cd:20:44:81:e6:
        46:36:c3:23:5f:9d:72:f5:e6:e0:ee:05:44:c9:97:af:e1:fa:
        4c:9e:a1:ee:b4:7c:53:e9:57:f9:cd:7d:0a:6c:ea:35:ec:4c:
        76:97:96:eb:0c:d5:07:4d:a5:1e:6b:0e:23:11:21:a7:66:f9:
        79:fe:d4:7b:f6:79:3a:c9:22:d2:e2:f7:0a:ab:b3:a1:22:52:
        fe:b6:8e:81:c8:d9:6c:94:88:ed:f6:d9:9c:2f:78:61:fc:a5:
        db:a4:03:f1:05:6c:3b:03:85:a7:d2:78:d1:16:6c:b2:86:31:
        25:a8:c7:8f:8a:35:b3:d4:8c:c5:d1:1e:45:65:59:ad:02:d3:
        b7:c3:8a:42:fa:fa:4d:15:a5:9a:94:bd:20:e6:8b:c8:3a:1f:
        90:c4:b9:79:44:60:23:c4:1f:1c:86:cd:5f:86:15:8e:76:76:
        06:ee:9b:d4:db:ee:d6:c0:cf:7b:c6:47:1d:36:e8:34:03:59:
        dd:97:08:5f:47:04:89:c2:2f:17:a3:20:88:1b:78:79:c3:80:
        b0:5b:c1:c5:82:e0:04:62:f1:75:b9:36:c0:95:11:97:28:3f:
        d6:04:ac:2f:24:5f:32:30:4a:19:50:22:73:b6:29:bf:51:00:
        9d:7c:fc:89:ba:ab:df:85:0a:06:72:cb:c3:14:11:3f:8f:b9:
        eb:89:8d:76:c5:02:6f:6e:75:51:05:14:f4:21:77:c3:4d:97:
        3d:0b:fd:aa:50:0e:9f:57:22:e2:82:9f:c9:dc:19:e1:9a:87:
        42:f6:09:4e:9b:bb:0a:48:6f:6e:38:4b:69:2d:87:37:96:0d:
        24:53:c1:40:91:da:fb:b7:f8:36:71:9f:c7:2c:41:ef:e4:de:
        7e:75:49:f1:5b:d3:d3:a7:de:50:79:0a:77:b8:2b:f0:bf:d8:
        0e:a5:b8:01:c5:3d:d3:91:32:bd:98:dd:c0:d1:46:a0:63:c8:
        be:45:a5:a8:12:3d:a7:89:e6:e2:4a:11:66:ea:89:ac:7f:d1:
        79:81:c8:da:1c:bb:82:ec:d0:f3:d9:4a:67:82:ca:2a:b6:e9:
        cc:b1:09:4a:e6:28:d9:65:a5:50:6e:d1:8a:30:cc:47:89:ec:
        04:91:4b:d8:ca:90:da:8f:97:cc:29:fc:46:c5:f7:4c:b2:f1:
        f8:48:b0:78:dc:98:98:87:7d:1c:4e:61:45:51:a0:47:12:6f:
        f8:65:e9:d0:34:98:79:70
-----BEGIN CERTIFICATE-----
MIIFYjCCA0qgAwIBAgIBATANBgkqhkiG9w0BAQsFADCBmDELMAkGA1UEBhMCSU4x
EjAQBgNVBAgMCU5ldyBEZWxoaTEOMAwGA1UEBwwFRGVsaGkxGzAZBgNVBAoMEmNy
eW9lbGl0ZSwgUFJJVkFURTEUMBIGA1UECwwLRGV2ZWxvcG1lbnQxEDAOBgNVBAMM
B2xvY2FsQ0ExIDAeBgkqhkiG9w0BCQEWEWNyeW9uaW1AZ21haWwuY29tMB4XDTIx
MTEyNzEyMjMyNFoXDTI0MDgyMzEyMjMyNFowYDELMAkGA1UEBhMCSU4xEjAQBgNV
BAgMCU5ldyBEZWxoaTEOMAwGA1UEBwwFRGVsaGkxGzAZBgNVBAoMEmNyeW9lbGl0
ZSwgUFJJVkFURTEQMA4GA1UEAwwHY3JiVGVzdDCCASIwDQYJKoZIhvcNAQEBBQAD
ggEPADCCAQoCggEBAKlDNb34IBXHFAI6QbjfsTN4LGNrzvKd6QSxmQ19EaEnOSxa
qmpM3vXLuuOLNULP3dpzIjV5HN3wYKXEWDz7meCZp62E+c03hGqZ9G1AaWYJJ3tq
rSwVMg1DZycSHsSR0Jml3huaX2l5s8DKCqF8cy0VYUHfViRav52N7J62vd+MdL+I
G76LChuQdAYpgPLElmGHDIxbKz1NCyFWhosmalCkQhe1b8hE+zK3vUZf22jFxJkN
ZpDQSR2pyQcdPGhwrTssASJYYAQ6RwQXw5YhR0XVgTNCd0vQzydfrARna3PkIdqp
dcVcGgYYYnwLJ8pLH+W/rRu/NzWSR2uP52SXTU0CAwEAAaOB7TCB6jAdBgNVHQ4E
FgQUKxk4fE/kxUZeCz4HgVjRIfagIX0wHwYDVR0jBBgwFoAUiWuWvhzx+YT7hsyp
dOAynq+FR3cwCQYDVR0TBAIwADALBgNVHQ8EBAMCBaAwYgYDVR0RBFswWYILZXhh
bXBsZS5jb22CD3d3dy5leGFtcGxlLmNvbYIQbWFpbC5leGFtcGxlLmNvbYIPZnRw
LmV4YW1wbGUuY29thwR/AAABhxAAAAAAAAAAAAAAAAAAAAABMCwGCWCGSAGG+EIB
DQQfFh1PcGVuU1NMIEdlbmVyYXRlZCBDZXJ0aWZpY2F0ZTANBgkqhkiG9w0BAQsF
AAOCAgEAFIkYUCajy4XrMQ5S48v5nhay2FUoFYBFUOoicKVNR/EaIuEK/GzXWFwa
UdC5HCfQrM0gRIHmRjbDI1+dcvXm4O4FRMmXr+H6TJ6h7rR8U+lX+c19CmzqNexM
dpeW6wzVB02lHmsOIxEhp2b5ef7Ue/Z5Oski0uL3CquzoSJS/raOgcjZbJSI7fbZ
nC94Yfyl26QD8QVsOwOFp9J40RZssoYxJajHj4o1s9SMxdEeRWVZrQLTt8OKQvr6
TRWlmpS9IOaLyDofkMS5eURgI8QfHIbNX4YVjnZ2Bu6b1Nvu1sDPe8ZHHTboNANZ
3ZcIX0cEicIvF6MgiBt4ecOAsFvBxYLgBGLxdbk2wJURlyg/1gSsLyRfMjBKGVAi
c7Ypv1EAnXz8ibqr34UKBnLLwxQRP4+564mNdsUCb251UQUU9CF3w02XPQv9qlAO
n1ci4oKfydwZ4ZqHQvYJTpu7CkhvbjhLaS2HN5YNJFPBQJHa+7f4NnGfxyxB7+Te
fnVJ8VvT06feUHkKd7gr8L/YDqW4AcU905EyvZjdwNFGoGPIvkWlqBI9p4nm4koR
ZuqJrH/ReYHI2hy7guzQ89lKZ4LKKrbpzLEJSuYo2WWlUG7RijDMR4nsBJFL2MqQ
2o+XzCn8RsX3TLLx+EiweNyYmId9HE5hRVGgRxJv+GXp0DSYeXA=
-----END CERTIFICATE-----
